#include <math.h>
#include <stdio.h>
#include <stdlib.h>
#include <string.h>

int main(){
	int i,a;
	char z[300];
	gets(z);
	a=strlen(z);
    for(i=0;i<a;i++){
		
		if(z[i]!=' '){
			printf("%c",z[i]);
			continue;
		}
		if(z[i]==' '&&z[i+1]!=' '){
			printf("%c",z[i]);
			continue;
		}
	}
    return 0;
}
